; Function Attrs: nounwind uwtable
define noalias ptr @l_Lean_IR_ExpandResetReuse_mkFastPath___boxed(ptr noundef %0, ptr noundef %1, ptr noundef %2, ptr noundef %3, ptr noundef %4, ptr noundef %5) local_unnamed_addr #1 {
  %7 = ptrtoint ptr %1 to i64
  %8 = and i64 %7, 1
  %.not.i16 = icmp eq i64 %8, 0
  br i1 %.not.i16, label %9, label %l_Lean_IR_ExpandResetReuse_mkFastPath.exit

9:                                                ; preds = %6
  %.val.i.i = load i32, ptr %1, align 4, !tbaa !4
  %10 = icmp sgt i32 %.val.i.i, 0
  br i1 %10, label %11, label %13, !prof !13

11:                                               ; preds = %9
  %12 = add nuw i32 %.val.i.i, 1
  store i32 %12, ptr %1, align 4, !tbaa !4
  br label %l_Lean_IR_ExpandResetReuse_mkFastPath.exit

13:                                               ; preds = %9
  %.not.i.i = icmp eq i32 %.val.i.i, 0
  br i1 %.not.i.i, label %l_Lean_IR_ExpandResetReuse_mkFastPath.exit, label %14

14:                                               ; preds = %13
  tail call void @lean_inc_ref_cold(ptr noundef nonnull %1) #4
  br label %l_Lean_IR_ExpandResetReuse_mkFastPath.exit

l_Lean_IR_ExpandResetReuse_mkFastPath.exit:       ; preds = %6, %11, %13, %14
  %15 = tail call ptr @l_Lean_IR_ExpandResetReuse_reuseToSet(ptr noundef readonly %4, ptr noundef %0, ptr noundef %1, ptr noundef %3)
  %16 = getelementptr i8, ptr %2, i64 8
  %.val.i11.i = load i64, ptr %16, align 8, !tbaa !9
  %17 = shl i64 %.val.i11.i, 1
  %18 = or disjoint i64 %17, 1
  %19 = inttoptr i64 %18 to ptr
  %20 = tail call noalias ptr @l_Nat_foldM_loop___at_Lean_IR_ExpandResetReuse_releaseUnreadFields___spec__1(ptr noundef %1, ptr noundef readonly %2, ptr noundef nonnull %19, ptr noundef nonnull %19, ptr nonnull poison, ptr noundef %15, ptr readnone poison, ptr noundef %5)
  %21 = ptrtoint ptr %4 to i64
  %22 = and i64 %21, 1
  %.not = icmp eq i64 %22, 0
  br i1 %.not, label %23, label %lean_dec.exit11

23:                                               ; preds = %l_Lean_IR_ExpandResetReuse_mkFastPath.exit
  %24 = load i32, ptr %4, align 4, !tbaa !4
  %25 = icmp sgt i32 %24, 1
  br i1 %25, label %26, label %28, !prof !13

26:                                               ; preds = %23
  %27 = add nsw i32 %24, -1
  store i32 %27, ptr %4, align 4, !tbaa !4
  br label %lean_dec.exit11

28:                                               ; preds = %23
  %.not.i = icmp eq i32 %24, 0
  br i1 %.not.i, label %lean_dec.exit11, label %29

29:                                               ; preds = %28
  tail call void @lean_dec_ref_cold(ptr noundef nonnull %4) #4
  br label %lean_dec.exit11

lean_dec.exit11:                                  ; preds = %29, %28, %26, %l_Lean_IR_ExpandResetReuse_mkFastPath.exit
  %30 = ptrtoint ptr %2 to i64
  %31 = and i64 %30, 1
  %.not17 = icmp eq i64 %31, 0
  br i1 %.not17, label %32, label %lean_dec.exit10

32:                                               ; preds = %lean_dec.exit11
  %33 = load i32, ptr %2, align 4, !tbaa !4
  %34 = icmp sgt i32 %33, 1
  br i1 %34, label %35, label %37, !prof !13

35:                                               ; preds = %32
  %36 = add nsw i32 %33, -1
  store i32 %36, ptr %2, align 4, !tbaa !4
  br label %lean_dec.exit10

37:                                               ; preds = %32
  %.not.i12 = icmp eq i32 %33, 0
  br i1 %.not.i12, label %lean_dec.exit10, label %38

38:                                               ; preds = %37
  tail call void @lean_dec_ref_cold(ptr noundef nonnull %2) #4
  br label %lean_dec.exit10

lean_dec.exit10:                                  ; preds = %38, %37, %35, %lean_dec.exit11
  %39 = ptrtoint ptr %0 to i64
  %40 = and i64 %39, 1
  %.not18 = icmp eq i64 %40, 0
  br i1 %.not18, label %41, label %lean_dec.exit

41:                                               ; preds = %lean_dec.exit10
  %42 = load i32, ptr %0, align 4, !tbaa !4
  %43 = icmp sgt i32 %42, 1
  br i1 %43, label %44, label %46, !prof !13

44:                                               ; preds = %41
  %45 = add nsw i32 %42, -1
  store i32 %45, ptr %0, align 4, !tbaa !4
  br label %lean_dec.exit

46:                                               ; preds = %41
  %.not.i14 = icmp eq i32 %42, 0
  br i1 %.not.i14, label %lean_dec.exit, label %47

47:                                               ; preds = %46
  tail call void @lean_dec_ref_cold(ptr noundef nonnull %0) #4
  br label %lean_dec.exit

lean_dec.exit:                                    ; preds = %47, %46, %44, %lean_dec.exit10
  ret ptr %20
}